target datalayout = "e-m:e-p270:32:32-p271:32:32-p272:64:64-i64:64-i128:128-f80:128-n8:16:32:64-S128"
target triple = "x86_64-pc-linux-gnu"

%"class.std::vector" = type { %"struct.std::_Vector_base" }
%"struct.std::_Vector_base" = type { %"struct.std::_Vector_base<std::unique_ptr<absl::crc_internal::CRCImpl>, std::allocator<std::unique_ptr<absl::crc_internal::CRCImpl>>>::_Vector_impl" }
%"struct.std::_Vector_base<std::unique_ptr<absl::crc_internal::CRCImpl>, std::allocator<std::unique_ptr<absl::crc_internal::CRCImpl>>>::_Vector_impl" = type { %"struct.std::_Vector_base<std::unique_ptr<absl::crc_internal::CRCImpl>, std::allocator<std::unique_ptr<absl::crc_internal::CRCImpl>>>::_Vector_impl_data" }
%"struct.std::_Vector_base<std::unique_ptr<absl::crc_internal::CRCImpl>, std::allocator<std::unique_ptr<absl::crc_internal::CRCImpl>>>::_Vector_impl_data" = type { ptr, ptr, ptr }

$_ZNSt6vectorISt10unique_ptrIN4absl12crc_internal7CRCImplESt14default_deleteIS3_EESaIS6_EEC2Ev = comdat any

$_ZNSt12_Vector_baseISt10unique_ptrIN4absl12crc_internal7CRCImplESt14default_deleteIS3_EESaIS6_EEC2Ev = comdat any

$_ZNSt12_Vector_baseISt10unique_ptrIN4absl12crc_internal7CRCImplESt14default_deleteIS3_EESaIS6_EE12_Vector_implC2Ev = comdat any

$_ZNSaISt10unique_ptrIN4absl12crc_internal7CRCImplESt14default_deleteIS2_EEEC2Ev = comdat any

$_ZNSt12_Vector_baseISt10unique_ptrIN4absl12crc_internal7CRCImplESt14default_deleteIS3_EESaIS6_EE17_Vector_impl_dataC2Ev = comdat any

$_ZNSt15__new_allocatorISt10unique_ptrIN4absl12crc_internal7CRCImplESt14default_deleteIS3_EEEC2Ev = comdat any

; Function Attrs: mustprogress nounwind uwtable
define dso_local void @_ZN4absl12crc_internal36NewCRC32AcceleratedX86ARMCombinedAllEv(ptr dead_on_unwind noalias writable sret(%"class.std::vector") align 8 %0) #0 {
  %2 = alloca ptr, align 8
  store ptr %0, ptr %2, align 8
  call void @llvm.memset.p0.i64(ptr align 8 %0, i8 0, i64 24, i1 false)
  call void @_ZNSt6vectorISt10unique_ptrIN4absl12crc_internal7CRCImplESt14default_deleteIS3_EESaIS6_EEC2Ev(ptr noundef nonnull align 8 dereferenceable(24) %0) #2
  ret void
}

; Function Attrs: nocallback nofree nounwind willreturn memory(argmem: write)
declare void @llvm.memset.p0.i64(ptr writeonly captures(none), i8, i64, i1 immarg) #1

; Function Attrs: mustprogress nounwind uwtable
define linkonce_odr dso_local void @_ZNSt6vectorISt10unique_ptrIN4absl12crc_internal7CRCImplESt14default_deleteIS3_EESaIS6_EEC2Ev(ptr noundef nonnull align 8 dereferenceable(24) %0) unnamed_addr #0 comdat align 2 {
  %2 = alloca ptr, align 8
  store ptr %0, ptr %2, align 8, !tbaa !4
  %3 = load ptr, ptr %2, align 8
  call void @_ZNSt12_Vector_baseISt10unique_ptrIN4absl12crc_internal7CRCImplESt14default_deleteIS3_EESaIS6_EEC2Ev(ptr noundef nonnull align 8 dereferenceable(24) %3) #2
  ret void
}

; Function Attrs: mustprogress nounwind uwtable
define dso_local noundef ptr @_ZN4absl12crc_internal36TryNewCRC32AcceleratedX86ARMCombinedEv() #0 {
  ret ptr null
}

; Function Attrs: mustprogress nounwind uwtable
define linkonce_odr dso_local void @_ZNSt12_Vector_baseISt10unique_ptrIN4absl12crc_internal7CRCImplESt14default_deleteIS3_EESaIS6_EEC2Ev(ptr noundef nonnull align 8 dereferenceable(24) %0) unnamed_addr #0 comdat align 2 {
  %2 = alloca ptr, align 8
  store ptr %0, ptr %2, align 8, !tbaa !9
  %3 = load ptr, ptr %2, align 8
  %4 = getelementptr inbounds nuw %"struct.std::_Vector_base", ptr %3, i32 0, i32 0
  call void @_ZNSt12_Vector_baseISt10unique_ptrIN4absl12crc_internal7CRCImplESt14default_deleteIS3_EESaIS6_EE12_Vector_implC2Ev(ptr noundef nonnull align 8 dereferenceable(24) %4) #2
  ret void
}

; Function Attrs: mustprogress nounwind uwtable
define linkonce_odr dso_local void @_ZNSt12_Vector_baseISt10unique_ptrIN4absl12crc_internal7CRCImplESt14default_deleteIS3_EESaIS6_EE12_Vector_implC2Ev(ptr noundef nonnull align 8 dereferenceable(24) %0) unnamed_addr #0 comdat align 2 {
  %2 = alloca ptr, align 8
  store ptr %0, ptr %2, align 8, !tbaa !11
  %3 = load ptr, ptr %2, align 8
  call void @_ZNSaISt10unique_ptrIN4absl12crc_internal7CRCImplESt14default_deleteIS2_EEEC2Ev(ptr noundef nonnull align 1 dereferenceable(1) %3) #2
  call void @_ZNSt12_Vector_baseISt10unique_ptrIN4absl12crc_internal7CRCImplESt14default_deleteIS3_EESaIS6_EE17_Vector_impl_dataC2Ev(ptr noundef nonnull align 8 dereferenceable(24) %3) #2
  ret void
}

; Function Attrs: mustprogress nounwind uwtable
define linkonce_odr dso_local void @_ZNSaISt10unique_ptrIN4absl12crc_internal7CRCImplESt14default_deleteIS2_EEEC2Ev(ptr noundef nonnull align 1 dereferenceable(1) %0) unnamed_addr #0 comdat align 2 {
  %2 = alloca ptr, align 8
  store ptr %0, ptr %2, align 8, !tbaa !13
  %3 = load ptr, ptr %2, align 8
  call void @_ZNSt15__new_allocatorISt10unique_ptrIN4absl12crc_internal7CRCImplESt14default_deleteIS3_EEEC2Ev(ptr noundef nonnull align 1 dereferenceable(1) %3) #2
  ret void
}

; Function Attrs: mustprogress nounwind uwtable
define linkonce_odr dso_local void @_ZNSt12_Vector_baseISt10unique_ptrIN4absl12crc_internal7CRCImplESt14default_deleteIS3_EESaIS6_EE17_Vector_impl_dataC2Ev(ptr noundef nonnull align 8 dereferenceable(24) %0) unnamed_addr #0 comdat align 2 {
  %2 = alloca ptr, align 8
  store ptr %0, ptr %2, align 8, !tbaa !15
  %3 = load ptr, ptr %2, align 8
  %4 = getelementptr inbounds nuw %"struct.std::_Vector_base<std::unique_ptr<absl::crc_internal::CRCImpl>, std::allocator<std::unique_ptr<absl::crc_internal::CRCImpl>>>::_Vector_impl_data", ptr %3, i32 0, i32 0
  store ptr null, ptr %4, align 8, !tbaa !17
  %5 = getelementptr inbounds nuw %"struct.std::_Vector_base<std::unique_ptr<absl::crc_internal::CRCImpl>, std::allocator<std::unique_ptr<absl::crc_internal::CRCImpl>>>::_Vector_impl_data", ptr %3, i32 0, i32 1
  store ptr null, ptr %5, align 8, !tbaa !20
  %6 = getelementptr inbounds nuw %"struct.std::_Vector_base<std::unique_ptr<absl::crc_internal::CRCImpl>, std::allocator<std::unique_ptr<absl::crc_internal::CRCImpl>>>::_Vector_impl_data", ptr %3, i32 0, i32 2
  store ptr null, ptr %6, align 8, !tbaa !21
  ret void
}

; Function Attrs: mustprogress nounwind uwtable
define linkonce_odr dso_local void @_ZNSt15__new_allocatorISt10unique_ptrIN4absl12crc_internal7CRCImplESt14default_deleteIS3_EEEC2Ev(ptr noundef nonnull align 1 dereferenceable(1) %0) unnamed_addr #0 comdat align 2 {
  %2 = alloca ptr, align 8
  store ptr %0, ptr %2, align 8, !tbaa !22
  ret void
}


!llvm.module.flags = !{!0, !1, !2, !3}

!0 = !{i32 1, !"wchar_size", i32 4}
!1 = !{i32 8, !"PIC Level", i32 2}
!2 = !{i32 7, !"PIE Level", i32 2}
!3 = !{i32 7, !"uwtable", i32 2}
!4 = !{!5, !5, i64 0}
!5 = !{!"p1 _ZTSSt6vectorISt10unique_ptrIN4absl12crc_internal7CRCImplESt14default_deleteIS3_EESaIS6_EE", !6, i64 0}
!6 = !{!"any pointer", !7, i64 0}
!7 = !{!"omnipotent char", !8, i64 0}
!8 = !{!"Simple C++ TBAA"}
!9 = !{!10, !10, i64 0}
!10 = !{!"p1 _ZTSSt12_Vector_baseISt10unique_ptrIN4absl12crc_internal7CRCImplESt14default_deleteIS3_EESaIS6_EE", !6, i64 0}
!11 = !{!12, !12, i64 0}
!12 = !{!"p1 _ZTSNSt12_Vector_baseISt10unique_ptrIN4absl12crc_internal7CRCImplESt14default_deleteIS3_EESaIS6_EE12_Vector_implE", !6, i64 0}
!13 = !{!14, !14, i64 0}
!14 = !{!"p1 _ZTSSaISt10unique_ptrIN4absl12crc_internal7CRCImplESt14default_deleteIS2_EEE", !6, i64 0}
!15 = !{!16, !16, i64 0}
!16 = !{!"p1 _ZTSNSt12_Vector_baseISt10unique_ptrIN4absl12crc_internal7CRCImplESt14default_deleteIS3_EESaIS6_EE17_Vector_impl_dataE", !6, i64 0}
!17 = !{!18, !19, i64 0}
!18 = !{!"_ZTSNSt12_Vector_baseISt10unique_ptrIN4absl12crc_internal7CRCImplESt14default_deleteIS3_EESaIS6_EE17_Vector_impl_dataE", !19, i64 0, !19, i64 8, !19, i64 16}
!19 = !{!"p1 _ZTSSt10unique_ptrIN4absl12crc_internal7CRCImplESt14default_deleteIS2_EE", !6, i64 0}
!20 = !{!18, !19, i64 8}
!21 = !{!18, !19, i64 16}
!22 = !{!23, !23, i64 0}
!23 = !{!"p1 _ZTSSt15__new_allocatorISt10unique_ptrIN4absl12crc_internal7CRCImplESt14default_deleteIS3_EEE", !6, i64 0}
